target datalayout = "e-m:e-p270:32:32-p271:32:32-p272:64:64-i64:64-i128:128-f80:128-n8:16:32:64-S128"
target triple = "x86_64-pc-linux-gnu"

%struct.AVFilterContext = type { ptr, ptr, ptr, ptr, ptr, i32, ptr, ptr, i32, ptr, ptr, i32, i32, ptr, ptr, ptr, ptr, i32, ptr, i32, i32 }
%struct.APadContext = type { ptr, i64, i32, i32, i64, i64, i64, i64, i64, i64 }
%struct.AVFilterLink = type { ptr, ptr, ptr, ptr, i32, i32, i32, i32, %struct.AVRational, i32, i32, i32, %struct.AVChannelLayout, %struct.AVRational, ptr, i32, %struct.AVFilterFormatsConfig, %struct.AVFilterFormatsConfig }
%struct.AVChannelLayout = type { i32, i32, %union.anon.1, ptr }
%union.anon.1 = type { i64 }
%struct.AVRational = type { i32, i32 }
%struct.AVFilterFormatsConfig = type { ptr, ptr, ptr, ptr, ptr }

; Function Attrs: nounwind uwtable
define internal i32 @config_output(ptr noundef %0) #1 {
  %2 = alloca ptr, align 8
  %3 = alloca ptr, align 8
  %4 = alloca ptr, align 8
  store ptr %0, ptr %2, align 8, !tbaa !30
  call void @llvm.lifetime.start.p0(i64 8, ptr %3) #7
  %5 = load ptr, ptr %2, align 8, !tbaa !30
  %6 = getelementptr inbounds nuw %struct.AVFilterLink, ptr %5, i32 0, i32 0
  %7 = load ptr, ptr %6, align 8, !tbaa !37
  store ptr %7, ptr %3, align 8, !tbaa !4
  call void @llvm.lifetime.start.p0(i64 8, ptr %4) #7
  %8 = load ptr, ptr %3, align 8, !tbaa !4
  %9 = getelementptr inbounds nuw %struct.AVFilterContext, ptr %8, i32 0, i32 9
  %10 = load ptr, ptr %9, align 8, !tbaa !9
  store ptr %10, ptr %4, align 8, !tbaa !22
  %11 = load ptr, ptr %4, align 8, !tbaa !22
  %12 = getelementptr inbounds nuw %struct.APadContext, ptr %11, i32 0, i32 8
  %13 = load i64, ptr %12, align 8, !tbaa !45
  %14 = icmp sge i64 %13, 0
  br i1 %14, label %15, label %26

15:                                               ; preds = %1
  %16 = load ptr, ptr %4, align 8, !tbaa !22
  %17 = getelementptr inbounds nuw %struct.APadContext, ptr %16, i32 0, i32 8
  %18 = load i64, ptr %17, align 8, !tbaa !45
  %19 = load ptr, ptr %2, align 8, !tbaa !30
  %20 = getelementptr inbounds nuw %struct.AVFilterLink, ptr %19, i32 0, i32 11
  %21 = load i32, ptr %20, align 8, !tbaa !46
  %22 = sext i32 %21 to i64
  %23 = call i64 @av_rescale(i64 noundef %18, i64 noundef %22, i64 noundef 1000000) #8
  %24 = load ptr, ptr %4, align 8, !tbaa !22
  %25 = getelementptr inbounds nuw %struct.APadContext, ptr %24, i32 0, i32 4
  store i64 %23, ptr %25, align 8, !tbaa !28
  br label %26

26:                                               ; preds = %15, %1
  %27 = load ptr, ptr %4, align 8, !tbaa !22
  %28 = getelementptr inbounds nuw %struct.APadContext, ptr %27, i32 0, i32 9
  %29 = load i64, ptr %28, align 8, !tbaa !47
  %30 = icmp sge i64 %29, 0
  br i1 %30, label %31, label %42

31:                                               ; preds = %26
  %32 = load ptr, ptr %4, align 8, !tbaa !22
  %33 = getelementptr inbounds nuw %struct.APadContext, ptr %32, i32 0, i32 9
  %34 = load i64, ptr %33, align 8, !tbaa !47
  %35 = load ptr, ptr %2, align 8, !tbaa !30
  %36 = getelementptr inbounds nuw %struct.AVFilterLink, ptr %35, i32 0, i32 11
  %37 = load i32, ptr %36, align 8, !tbaa !46
  %38 = sext i32 %37 to i64
  %39 = call i64 @av_rescale(i64 noundef %34, i64 noundef %38, i64 noundef 1000000) #8
  %40 = load ptr, ptr %4, align 8, !tbaa !22
  %41 = getelementptr inbounds nuw %struct.APadContext, ptr %40, i32 0, i32 6
  store i64 %39, ptr %41, align 8, !tbaa !27
  br label %42

42:                                               ; preds = %31, %26
  %43 = load ptr, ptr %4, align 8, !tbaa !22
  %44 = getelementptr inbounds nuw %struct.APadContext, ptr %43, i32 0, i32 4
  %45 = load i64, ptr %44, align 8, !tbaa !28
  %46 = load ptr, ptr %4, align 8, !tbaa !22
  %47 = getelementptr inbounds nuw %struct.APadContext, ptr %46, i32 0, i32 5
  store i64 %45, ptr %47, align 8, !tbaa !48
  %48 = load ptr, ptr %4, align 8, !tbaa !22
  %49 = getelementptr inbounds nuw %struct.APadContext, ptr %48, i32 0, i32 6
  %50 = load i64, ptr %49, align 8, !tbaa !27
  %51 = load ptr, ptr %4, align 8, !tbaa !22
  %52 = getelementptr inbounds nuw %struct.APadContext, ptr %51, i32 0, i32 7
  store i64 %50, ptr %52, align 8, !tbaa !49
  call void @llvm.lifetime.end.p0(i64 8, ptr %4) #7
  call void @llvm.lifetime.end.p0(i64 8, ptr %3) #7
  ret i32 0
}