; Function Attrs: mustprogress nofree nosync nounwind willreturn memory(readwrite, inaccessiblemem: none) uwtable
define internal noundef i32 @config_output(ptr noundef readonly captures(none) %0) #2 {
  %2 = load ptr, ptr %0, align 8, !tbaa !50
  %3 = getelementptr inbounds nuw i8, ptr %2, i64 72
  %4 = load ptr, ptr %3, align 8, !tbaa !4
  %5 = getelementptr inbounds nuw i8, ptr %4, i64 56
  %6 = load i64, ptr %5, align 8, !tbaa !58
  %7 = icmp sgt i64 %6, -1
  br i1 %7, label %8, label %14

8:                                                ; preds = %1
  %9 = getelementptr inbounds nuw i8, ptr %0, i64 64
  %10 = load i32, ptr %9, align 8, !tbaa !48
  %11 = sext i32 %10 to i64
  %12 = tail call i64 @av_rescale(i64 noundef %6, i64 noundef %11, i64 noundef 1000000) #9
  %13 = getelementptr inbounds nuw i8, ptr %4, i64 24
  store i64 %12, ptr %13, align 8, !tbaa !24
  br label %14

14:                                               ; preds = %8, %1
  %15 = getelementptr inbounds nuw i8, ptr %4, i64 64
  %16 = load i64, ptr %15, align 8, !tbaa !59
  %17 = icmp sgt i64 %16, -1
  br i1 %17, label %18, label %._crit_edge

._crit_edge:                                      ; preds = %14
  %.phi.trans.insert = getelementptr inbounds nuw i8, ptr %4, i64 40
  %.pre = load i64, ptr %.phi.trans.insert, align 8, !tbaa !23
  br label %24

18:                                               ; preds = %14
  %19 = getelementptr inbounds nuw i8, ptr %0, i64 64
  %20 = load i32, ptr %19, align 8, !tbaa !48
  %21 = sext i32 %20 to i64
  %22 = tail call i64 @av_rescale(i64 noundef %16, i64 noundef %21, i64 noundef 1000000) #9
  %23 = getelementptr inbounds nuw i8, ptr %4, i64 40
  store i64 %22, ptr %23, align 8, !tbaa !23
  br label %24

24:                                               ; preds = %._crit_edge, %18
  %25 = phi i64 [ %.pre, %._crit_edge ], [ %22, %18 ]
  %26 = getelementptr inbounds nuw i8, ptr %4, i64 24
  %27 = load i64, ptr %26, align 8, !tbaa !24
  %28 = getelementptr inbounds nuw i8, ptr %4, i64 32
  store i64 %27, ptr %28, align 8, !tbaa !53
  %29 = getelementptr inbounds nuw i8, ptr %4, i64 48
  store i64 %25, ptr %29, align 8, !tbaa !41
  ret i32 0
}